target datalayout = "e-m:e-p270:32:32-p271:32:32-p272:64:64-i64:64-i128:128-f80:128-n8:16:32:64-S128"
target triple = "x86_64-pc-linux-gnu"

; Function Attrs: nounwind uwtable
define void @Cba_BlastRotateRight(ptr noundef %0, ptr noundef %1, i32 noundef %2, ptr noundef %3, i32 noundef %4, ptr noundef %5) #0 {
  %7 = alloca ptr, align 8
  %8 = alloca ptr, align 8
  %9 = alloca i32, align 4
  %10 = alloca ptr, align 8
  %11 = alloca i32, align 4
  %12 = alloca ptr, align 8
  %13 = alloca ptr, align 8
  %14 = alloca i32, align 4
  %15 = alloca i32, align 4
  %16 = alloca ptr, align 8
  store ptr %0, ptr %7, align 8
  store ptr %1, ptr %8, align 8
  store i32 %2, ptr %9, align 4
  store ptr %3, ptr %10, align 8
  store i32 %4, ptr %11, align 4
  store ptr %5, ptr %12, align 8
  %17 = load ptr, ptr %12, align 8
  %18 = load ptr, ptr %8, align 8
  %19 = load i32, ptr %9, align 4
  %20 = call ptr @Cba_VecCopy(ptr noundef %17, ptr noundef %18, i32 noundef %19)
  store ptr %20, ptr %13, align 8
  %21 = load i32, ptr %9, align 4
  %22 = sext i32 %21 to i64
  %23 = mul i64 4, %22
  %24 = call noalias ptr @malloc(i64 noundef %23) #10
  store ptr %24, ptr %16, align 8
  store i32 0, ptr %14, align 4
  br label %25

25:                                               ; preds = %65, %6
  %26 = load i32, ptr %14, align 4
  %27 = load i32, ptr %11, align 4
  %28 = icmp slt i32 %26, %27
  br i1 %28, label %29, label %72

29:                                               ; preds = %25
  store i32 0, ptr %15, align 4
  br label %30

30:                                               ; preds = %61, %29
  %31 = load i32, ptr %15, align 4
  %32 = load i32, ptr %9, align 4
  %33 = icmp slt i32 %31, %32
  br i1 %33, label %34, label %64

34:                                               ; preds = %30
  %35 = load ptr, ptr %7, align 8
  %36 = load ptr, ptr %10, align 8
  %37 = load i32, ptr %14, align 4
  %38 = sext i32 %37 to i64
  %39 = getelementptr inbounds i32, ptr %36, i64 %38
  %40 = load i32, ptr %39, align 4
  %41 = load ptr, ptr %13, align 8
  %42 = load i32, ptr %15, align 4
  %43 = load i32, ptr %14, align 4
  %44 = shl i32 1, %43
  %45 = add nsw i32 %42, %44
  %46 = load i32, ptr %9, align 4
  %47 = srem i32 %45, %46
  %48 = sext i32 %47 to i64
  %49 = getelementptr inbounds i32, ptr %41, i64 %48
  %50 = load i32, ptr %49, align 4
  %51 = load ptr, ptr %13, align 8
  %52 = load i32, ptr %15, align 4
  %53 = sext i32 %52 to i64
  %54 = getelementptr inbounds i32, ptr %51, i64 %53
  %55 = load i32, ptr %54, align 4
  %56 = call i32 @Gia_ManHashMux(ptr noundef %35, i32 noundef %40, i32 noundef %50, i32 noundef %55)
  %57 = load ptr, ptr %16, align 8
  %58 = load i32, ptr %15, align 4
  %59 = sext i32 %58 to i64
  %60 = getelementptr inbounds i32, ptr %57, i64 %59
  store i32 %56, ptr %60, align 4
  br label %61

61:                                               ; preds = %34
  %62 = load i32, ptr %15, align 4
  %63 = add nsw i32 %62, 1
  store i32 %63, ptr %15, align 4
  br label %30, !llvm.loop !19

64:                                               ; preds = %30
  br label %65

65:                                               ; preds = %64
  %66 = load i32, ptr %14, align 4
  %67 = add nsw i32 %66, 1
  store i32 %67, ptr %14, align 4
  %68 = load ptr, ptr %12, align 8
  %69 = load ptr, ptr %16, align 8
  %70 = load i32, ptr %9, align 4
  %71 = call ptr @Cba_VecCopy(ptr noundef %68, ptr noundef %69, i32 noundef %70)
  store ptr %71, ptr %13, align 8
  br label %25, !llvm.loop !20

72:                                               ; preds = %25
  %73 = load ptr, ptr %16, align 8
  %74 = icmp ne ptr %73, null
  br i1 %74, label %75, label %77

75:                                               ; preds = %72
  %76 = load ptr, ptr %16, align 8
  call void @free(ptr noundef %76) #11
  store ptr null, ptr %16, align 8
  br label %78

77:                                               ; preds = %72
  br label %78

78:                                               ; preds = %77, %75
  ret void
}