; Function Attrs: nounwind uwtable
define void @Cba_BlastRotateRight(ptr noundef %0, ptr noundef readonly captures(none) %1, i32 noundef %2, ptr noundef readonly captures(none) %3, i32 noundef %4, ptr noundef captures(none) initializes((4, 8)) %5) local_unnamed_addr #0 {
  %7 = tail call ptr @Cba_VecCopy(ptr noundef %5, ptr noundef %1, i32 noundef %2)
  %8 = sext i32 %2 to i64
  %9 = shl nsw i64 %8, 2
  %10 = tail call noalias ptr @malloc(i64 noundef %9) #19
  %11 = icmp sgt i32 %4, 0
  br i1 %11, label %.preheader.lr.ph, label %._crit_edge32

.preheader.lr.ph:                                 ; preds = %6
  %12 = icmp sgt i32 %2, 0
  br i1 %12, label %.preheader.us.preheader, label %.preheader

.preheader.us.preheader:                          ; preds = %.preheader.lr.ph
  %wide.trip.count39 = zext nneg i32 %4 to i64
  %wide.trip.count = zext nneg i32 %2 to i64
  br label %.preheader.us

.preheader.us:                                    ; preds = %.preheader.us.preheader, %._crit_edge.us
  %indvars.iv36 = phi i64 [ 0, %.preheader.us.preheader ], [ %indvars.iv.next37, %._crit_edge.us ]
  %.02630.us = phi ptr [ %7, %.preheader.us.preheader ], [ %28, %._crit_edge.us ]
  %13 = getelementptr inbounds nuw i32, ptr %3, i64 %indvars.iv36
  %14 = trunc nuw nsw i64 %indvars.iv36 to i32
  %15 = shl nuw i32 1, %14
  br label %16

16:                                               ; preds = %.preheader.us, %16
  %indvars.iv = phi i64 [ 0, %.preheader.us ], [ %indvars.iv.next, %16 ]
  %17 = load i32, ptr %13, align 4
  %18 = trunc i64 %indvars.iv to i32
  %19 = add i32 %15, %18
  %20 = srem i32 %19, %2
  %21 = sext i32 %20 to i64
  %22 = getelementptr inbounds i32, ptr %.02630.us, i64 %21
  %23 = load i32, ptr %22, align 4
  %24 = getelementptr inbounds nuw i32, ptr %.02630.us, i64 %indvars.iv
  %25 = load i32, ptr %24, align 4
  %26 = tail call i32 @Gia_ManHashMux(ptr noundef %0, i32 noundef %17, i32 noundef %23, i32 noundef %25) #20
  %27 = getelementptr inbounds nuw i32, ptr %10, i64 %indvars.iv
  store i32 %26, ptr %27, align 4
  %indvars.iv.next = add nuw nsw i64 %indvars.iv, 1
  %exitcond35.not = icmp eq i64 %indvars.iv.next, %wide.trip.count
  br i1 %exitcond35.not, label %._crit_edge.us, label %16, !llvm.loop !19

._crit_edge.us:                                   ; preds = %16
  %indvars.iv.next37 = add nuw nsw i64 %indvars.iv36, 1
  %28 = tail call ptr @Cba_VecCopy(ptr noundef %5, ptr noundef nonnull %10, i32 noundef %2)
  %exitcond40.not = icmp eq i64 %indvars.iv.next37, %wide.trip.count39
  br i1 %exitcond40.not, label %._crit_edge32.thread, label %.preheader.us, !llvm.loop !20

.preheader:                                       ; preds = %.preheader.lr.ph, %.preheader
  %.02531 = phi i32 [ %29, %.preheader ], [ 0, %.preheader.lr.ph ]
  %29 = add nuw nsw i32 %.02531, 1
  %30 = tail call ptr @Cba_VecCopy(ptr noundef %5, ptr noundef %10, i32 noundef %2)
  %exitcond.not = icmp eq i32 %29, %4
  br i1 %exitcond.not, label %._crit_edge32, label %.preheader, !llvm.loop !20

._crit_edge32:                                    ; preds = %.preheader, %6
  %.not = icmp eq ptr %10, null
  br i1 %.not, label %31, label %._crit_edge32.thread

._crit_edge32.thread:                             ; preds = %._crit_edge.us, %._crit_edge32
  tail call void @free(ptr noundef nonnull %10) #20
  br label %31

31:                                               ; preds = %._crit_edge32, %._crit_edge32.thread
  ret void
}